target datalayout = "e-m:e-p270:32:32-p271:32:32-p272:64:64-i64:64-i128:128-f80:128-n8:16:32:64-S128"
target triple = "x86_64-pc-linux-gnu"

%struct.rb_data_type_struct = type { ptr, %struct.anon.12, ptr, ptr, i64 }
%struct.anon.12 = type { ptr, ptr, ptr, ptr, [1 x ptr] }
%struct.enum_product = type { i64 }
%struct.RBasic = type { i64, i64 }
%struct.RArray = type { %struct.RBasic, %union.anon.14 }
%union.anon.14 = type { %struct.anon.15 }
%struct.anon.15 = type { i64, %union.anon.16, ptr }
%union.anon.16 = type { i64 }
%struct.product_state = type { i64, i64, i32, ptr, i32 }

@id_each_entry = internal global i64 0, align 8
@rb_eArgError = external global i64, align 8
@enum_product_data_type = internal constant %struct.rb_data_type_struct { ptr @.str.79, %struct.anon.12 { ptr @enum_product_mark, ptr inttoptr (i64 -1 to ptr), ptr @enum_product_memsize, ptr @enum_product_compact, [1 x ptr] zeroinitializer }, ptr null, ptr null, i64 1 }, align 8
@.str.151 = private unnamed_addr constant [22 x i8] c"uninitialized product\00", align 1

; Function Attrs: inlinehint nounwind sspstrong willreturn memory(read) uwtable
define internal i64 @RB_FL_TEST_RAW(i64 noundef %0, i64 noundef %1) #6 {
  %3 = alloca i64, align 8
  %4 = alloca i64, align 8
  store i64 %0, ptr %3, align 8, !tbaa !7
  store i64 %1, ptr %4, align 8, !tbaa !7
  %5 = load i64, ptr %3, align 8, !tbaa !7
  %6 = inttoptr i64 %5 to ptr
  %7 = getelementptr inbounds nuw %struct.RBasic, ptr %6, i32 0, i32 0
  %8 = load i64, ptr %7, align 8, !tbaa !87
  %9 = load i64, ptr %4, align 8, !tbaa !7
  %10 = and i64 %8, %9
  ret i64 %10
}

; Function Attrs: inlinehint nounwind sspstrong willreturn memory(read) uwtable
define internal zeroext i1 @RB_FL_ANY_RAW(i64 noundef %0, i64 noundef %1) #6 {
  %3 = alloca i64, align 8
  %4 = alloca i64, align 8
  store i64 %0, ptr %3, align 8, !tbaa !7
  store i64 %1, ptr %4, align 8, !tbaa !7
  %5 = load i64, ptr %3, align 8, !tbaa !7
  %6 = load i64, ptr %4, align 8, !tbaa !7
  %7 = call i64 @RB_FL_TEST_RAW(i64 noundef %5, i64 noundef %6) #26
  %8 = icmp ne i64 %7, 0
  ret i1 %8
}

; Function Attrs: inlinehint nounwind sspstrong willreturn memory(read) uwtable
define internal ptr @rb_array_const_ptr(i64 noundef %0) #6 {
  %2 = alloca ptr, align 8
  %3 = alloca i64, align 8
  store i64 %0, ptr %3, align 8, !tbaa !7
  %4 = load i64, ptr %3, align 8, !tbaa !7
  %5 = call zeroext i1 @RB_FL_ANY_RAW(i64 noundef %4, i64 noundef 8192) #26
  br i1 %5, label %6, label %11

6:                                                ; preds = %1
  %7 = load i64, ptr %3, align 8, !tbaa !7
  %8 = inttoptr i64 %7 to ptr
  %9 = getelementptr inbounds nuw %struct.RArray, ptr %8, i32 0, i32 1
  %10 = getelementptr inbounds [1 x i64], ptr %9, i64 0, i64 0
  store ptr %10, ptr %2, align 8
  br label %17

11:                                               ; preds = %1
  %12 = load i64, ptr %3, align 8, !tbaa !7
  %13 = inttoptr i64 %12 to ptr
  %14 = getelementptr inbounds nuw %struct.RArray, ptr %13, i32 0, i32 1
  %15 = getelementptr inbounds nuw %struct.anon.15, ptr %14, i32 0, i32 2
  %16 = load ptr, ptr %15, align 8, !tbaa !93
  store ptr %16, ptr %2, align 8
  br label %17

17:                                               ; preds = %11, %6
  %18 = load ptr, ptr %2, align 8
  ret ptr %18
}

; Function Attrs: inlinehint nounwind sspstrong willreturn memory(none) uwtable
define internal zeroext i1 @RB_UNDEF_P(i64 noundef %0) #2 {
  %2 = alloca i64, align 8
  store i64 %0, ptr %2, align 8, !tbaa !7
  %3 = load i64, ptr %2, align 8, !tbaa !7
  %4 = icmp eq i64 %3, 36
  ret i1 %4
}

; Function Attrs: inlinehint nounwind sspstrong willreturn memory(read) uwtable
define internal i64 @RARRAY_AREF(i64 noundef %0, i64 noundef %1) #6 {
  %3 = alloca i64, align 8
  %4 = alloca i64, align 8
  %5 = alloca i64, align 8
  store i64 %0, ptr %3, align 8, !tbaa !7
  store i64 %1, ptr %4, align 8, !tbaa !7
  call void @llvm.lifetime.start.p0(i64 8, ptr %5) #23
  %6 = load i64, ptr %3, align 8, !tbaa !7
  %7 = call ptr @rb_array_const_ptr(i64 noundef %6) #26
  %8 = load i64, ptr %4, align 8, !tbaa !7
  %9 = getelementptr i64, ptr %7, i64 %8
  %10 = load i64, ptr %9, align 8, !tbaa !7
  store i64 %10, ptr %5, align 8, !tbaa !7
  %11 = load i64, ptr %5, align 8, !tbaa !7
  call void @llvm.lifetime.end.p0(i64 8, ptr %5) #23
  ret i64 %11
}

; Function Attrs: nounwind sspstrong uwtable
define internal ptr @enum_product_ptr(i64 noundef %0) #0 {
  %2 = alloca i64, align 8
  %3 = alloca ptr, align 8
  store i64 %0, ptr %2, align 8, !tbaa !7
  call void @llvm.lifetime.start.p0(i64 8, ptr %3) #23
  %4 = load i64, ptr %2, align 8, !tbaa !7
  %5 = call ptr @rb_check_typeddata(i64 noundef %4, ptr noundef @enum_product_data_type)
  store ptr %5, ptr %3, align 8, !tbaa !70
  %6 = load ptr, ptr %3, align 8, !tbaa !70
  %7 = icmp ne ptr %6, null
  br i1 %7, label %8, label %13

8:                                                ; preds = %1
  %9 = load ptr, ptr %3, align 8, !tbaa !70
  %10 = getelementptr inbounds nuw %struct.enum_product, ptr %9, i32 0, i32 0
  %11 = load i64, ptr %10, align 8, !tbaa !72
  %12 = call zeroext i1 @RB_UNDEF_P(i64 noundef %11) #24
  br i1 %12, label %13, label %15

13:                                               ; preds = %8, %1
  %14 = load i64, ptr @rb_eArgError, align 8, !tbaa !7
  call void (i64, ptr, ...) @rb_raise(i64 noundef %14, ptr noundef @.str.151) #25
  unreachable

15:                                               ; preds = %8
  %16 = load ptr, ptr %3, align 8, !tbaa !70
  call void @llvm.lifetime.end.p0(i64 8, ptr %3) #23
  ret ptr %16
}

; Function Attrs: nounwind sspstrong uwtable
define internal i64 @product_each(i64 noundef %0, ptr noundef %1) #0 {
  %3 = alloca i64, align 8
  %4 = alloca ptr, align 8
  %5 = alloca ptr, align 8
  %6 = alloca i64, align 8
  %7 = alloca i64, align 8
  store i64 %0, ptr %3, align 8, !tbaa !7
  store ptr %1, ptr %4, align 8, !tbaa !145
  call void @llvm.lifetime.start.p0(i64 8, ptr %5) #23
  %8 = load i64, ptr %3, align 8, !tbaa !7
  %9 = call ptr @enum_product_ptr(i64 noundef %8)
  store ptr %9, ptr %5, align 8, !tbaa !70
  call void @llvm.lifetime.start.p0(i64 8, ptr %6) #23
  %10 = load ptr, ptr %5, align 8, !tbaa !70
  %11 = getelementptr inbounds nuw %struct.enum_product, ptr %10, i32 0, i32 0
  %12 = load i64, ptr %11, align 8, !tbaa !72
  store i64 %12, ptr %6, align 8, !tbaa !7
  %13 = load ptr, ptr %4, align 8, !tbaa !145
  %14 = getelementptr inbounds nuw %struct.product_state, ptr %13, i32 0, i32 4
  %15 = load i32, ptr %14, align 8, !tbaa !144
  %16 = load ptr, ptr %4, align 8, !tbaa !145
  %17 = getelementptr inbounds nuw %struct.product_state, ptr %16, i32 0, i32 2
  %18 = load i32, ptr %17, align 8, !tbaa !142
  %19 = icmp slt i32 %15, %18
  br i1 %19, label %20, label %32

20:                                               ; preds = %2
  call void @llvm.lifetime.start.p0(i64 8, ptr %7) #23
  %21 = load i64, ptr %6, align 8, !tbaa !7
  %22 = load ptr, ptr %4, align 8, !tbaa !145
  %23 = getelementptr inbounds nuw %struct.product_state, ptr %22, i32 0, i32 4
  %24 = load i32, ptr %23, align 8, !tbaa !144
  %25 = sext i32 %24 to i64
  %26 = call i64 @RARRAY_AREF(i64 noundef %21, i64 noundef %25) #26
  store i64 %26, ptr %7, align 8, !tbaa !7
  %27 = load i64, ptr %7, align 8, !tbaa !7
  %28 = load i64, ptr @id_each_entry, align 8, !tbaa !7
  %29 = load ptr, ptr %4, align 8, !tbaa !145
  %30 = ptrtoint ptr %29 to i64
  %31 = call i64 @rb_block_call(i64 noundef %27, i64 noundef %28, i32 noundef 0, ptr noundef null, ptr noundef @product_each_i, i64 noundef %30)
  call void @llvm.lifetime.end.p0(i64 8, ptr %7) #23
  br label %45

32:                                               ; preds = %2
  %33 = load ptr, ptr %4, align 8, !tbaa !145
  %34 = getelementptr inbounds nuw %struct.product_state, ptr %33, i32 0, i32 1
  %35 = load i64, ptr %34, align 8, !tbaa !141
  %36 = load ptr, ptr %4, align 8, !tbaa !145
  %37 = getelementptr inbounds nuw %struct.product_state, ptr %36, i32 0, i32 2
  %38 = load i32, ptr %37, align 8, !tbaa !142
  %39 = sext i32 %38 to i64
  %40 = load ptr, ptr %4, align 8, !tbaa !145
  %41 = getelementptr inbounds nuw %struct.product_state, ptr %40, i32 0, i32 3
  %42 = load ptr, ptr %41, align 8, !tbaa !143
  %43 = call i64 @rb_ary_new_from_values(i64 noundef %39, ptr noundef %42)
  %44 = call i64 (i64, i64, i32, ...) @rb_funcall(i64 noundef %35, i64 noundef 3457, i32 noundef 1, i64 noundef %43)
  br label %45

45:                                               ; preds = %32, %20
  %46 = load i64, ptr %3, align 8, !tbaa !7
  call void @llvm.lifetime.end.p0(i64 8, ptr %6) #23
  call void @llvm.lifetime.end.p0(i64 8, ptr %5) #23
  ret i64 %46
}