; Function Attrs: nounwind sspstrong uwtable
define internal fastcc noundef i64 @product_each(i64 noundef returned %0, ptr noundef %1) unnamed_addr #0 {
  %3 = tail call ptr @rb_check_typeddata(i64 noundef %0, ptr noundef nonnull @enum_product_data_type) #18
  %.not.i = icmp eq ptr %3, null
  br i1 %.not.i, label %7, label %4

4:                                                ; preds = %2
  %5 = load i64, ptr %3, align 8, !tbaa !68
  %6 = icmp eq i64 %5, 36
  br i1 %6, label %7, label %enum_product_ptr.exit

7:                                                ; preds = %4, %2
  %8 = load i64, ptr @rb_eArgError, align 8, !tbaa !7
  tail call void (i64, ptr, ...) @rb_raise(i64 noundef %8, ptr noundef nonnull @.str.151) #19
  unreachable

enum_product_ptr.exit:                            ; preds = %4
  %9 = getelementptr inbounds nuw i8, ptr %1, i64 32
  %10 = load i32, ptr %9, align 8, !tbaa !119
  %11 = getelementptr inbounds nuw i8, ptr %1, i64 16
  %12 = load i32, ptr %11, align 8, !tbaa !117
  %13 = icmp slt i32 %10, %12
  br i1 %13, label %14, label %29

14:                                               ; preds = %enum_product_ptr.exit
  %15 = sext i32 %10 to i64
  %16 = inttoptr i64 %5 to ptr
  %17 = load i64, ptr %16, align 8, !tbaa !21
  %18 = and i64 %17, 8192
  %.not.i.i = icmp eq i64 %18, 0
  br i1 %.not.i.i, label %21, label %19

19:                                               ; preds = %14
  %20 = getelementptr inbounds nuw i8, ptr %16, i64 16
  br label %RARRAY_AREF.exit

21:                                               ; preds = %14
  %22 = getelementptr inbounds nuw i8, ptr %16, i64 32
  %23 = load ptr, ptr %22, align 8, !tbaa !44
  br label %RARRAY_AREF.exit

RARRAY_AREF.exit:                                 ; preds = %19, %21
  %.0.i.i = phi ptr [ %20, %19 ], [ %23, %21 ]
  %24 = getelementptr i64, ptr %.0.i.i, i64 %15
  %25 = load i64, ptr %24, align 8, !tbaa !7
  %26 = load i64, ptr @id_each_entry, align 8, !tbaa !7
  %27 = ptrtoint ptr %1 to i64
  %28 = tail call i64 @rb_block_call(i64 noundef %25, i64 noundef %26, i32 noundef 0, ptr noundef null, ptr noundef nonnull @product_each_i, i64 noundef %27) #18
  br label %37

29:                                               ; preds = %enum_product_ptr.exit
  %30 = getelementptr inbounds nuw i8, ptr %1, i64 8
  %31 = load i64, ptr %30, align 8, !tbaa !116
  %32 = sext i32 %12 to i64
  %33 = getelementptr inbounds nuw i8, ptr %1, i64 24
  %34 = load ptr, ptr %33, align 8, !tbaa !118
  %35 = tail call i64 @rb_ary_new_from_values(i64 noundef %32, ptr noundef %34) #18
  %36 = tail call i64 (i64, i64, i32, ...) @rb_funcall(i64 noundef %31, i64 noundef 3457, i32 noundef 1, i64 noundef %35) #18
  br label %37

37:                                               ; preds = %29, %RARRAY_AREF.exit
  ret i64 %0
}